; Function Attrs: nofree norecurse nosync nounwind memory(read, argmem: readwrite, inaccessiblemem: none) uwtable
define i32 @If_DsdManComputeFirstArray(ptr noundef readonly captures(none) %0, ptr noundef readonly captures(none) %1, i32 noundef %2, ptr noundef writeonly captures(none) %3) local_unnamed_addr #23 {
  %5 = icmp sgt i32 %2, 0
  br i1 %5, label %.lr.ph, label %._crit_edge

.lr.ph:                                           ; preds = %4
  %6 = getelementptr i8, ptr %0, i64 48
  %.val = load ptr, ptr %6, align 8, !tbaa !23
  %wide.trip.count = zext nneg i32 %2 to i64
  br label %7

7:                                                ; preds = %.lr.ph, %7
  %indvars.iv = phi i64 [ 0, %.lr.ph ], [ %indvars.iv.next, %7 ]
  %.012 = phi i32 [ 0, %.lr.ph ], [ %19, %7 ]
  %8 = getelementptr inbounds nuw i32, ptr %3, i64 %indvars.iv
  store i32 %.012, ptr %8, align 4, !tbaa !40
  %9 = getelementptr inbounds nuw i32, ptr %1, i64 %indvars.iv
  %10 = load i32, ptr %9, align 4, !tbaa !40
  %11 = ashr i32 %10, 1
  %12 = sext i32 %11 to i64
  %13 = getelementptr inbounds ptr, ptr %.val, i64 %12
  %14 = load ptr, ptr %13, align 8, !tbaa !24
  %15 = getelementptr inbounds nuw i8, ptr %14, i64 4
  %16 = load i32, ptr %15, align 4
  %17 = lshr i32 %16, 3
  %18 = and i32 %17, 31
  %19 = add nuw nsw i32 %18, %.012
  %indvars.iv.next = add nuw nsw i64 %indvars.iv, 1
  %exitcond.not = icmp eq i64 %indvars.iv.next, %wide.trip.count
  br i1 %exitcond.not, label %._crit_edge, label %7, !llvm.loop !203

._crit_edge:                                      ; preds = %7, %4
  %.0.lcssa = phi i32 [ 0, %4 ], [ %19, %7 ]
  ret i32 %.0.lcssa
}